; Function Attrs: mustprogress nofree norecurse nosync nounwind willreturn memory(read, argmem: none, inaccessiblemem: none) uwtable
define ptr @l_Lean_Lsp_instToJsonTextDocumentSyncKind(i8 noundef zeroext %0) local_unnamed_addr #2 {
  %switch.selectcmp = icmp eq i8 %0, 1
  %switch.selectcmp4 = icmp eq i8 %0, 0
  %l_Lean_Lsp_instToJsonTextDocumentSyncKind___closed__2.val = load ptr, ptr @l_Lean_Lsp_instToJsonTextDocumentSyncKind___closed__2, align 8
  %l_Lean_Lsp_instToJsonTextDocumentSyncKind___closed__4.val = load ptr, ptr @l_Lean_Lsp_instToJsonTextDocumentSyncKind___closed__4, align 8
  %l_Lean_Lsp_instToJsonTextDocumentSyncKind___closed__6.val = load ptr, ptr @l_Lean_Lsp_instToJsonTextDocumentSyncKind___closed__6, align 8
  %switch.select.val = select i1 %switch.selectcmp, ptr %l_Lean_Lsp_instToJsonTextDocumentSyncKind___closed__4.val, ptr %l_Lean_Lsp_instToJsonTextDocumentSyncKind___closed__6.val
  %.0 = select i1 %switch.selectcmp4, ptr %l_Lean_Lsp_instToJsonTextDocumentSyncKind___closed__2.val, ptr %switch.select.val
  ret ptr %.0
}